ccopy_reg
_reconstructor
p0
(csklearn.pipeline
Pipeline
p1
c__builtin__
object
p2
Ntp3
Rp4
(dp5
S'steps'
p6
(lp7
(S'scaler'
p8
g0
(csklearn.preprocessing.data
StandardScaler
p9
g2
Ntp10
Rp11
(dp12
S'copy'
p13
I01
sS'with_mean'
p14
I01
sS'with_std'
p15
I01
sbtp16
a(S'pca'
p17
g0
(csklearn.decomposition.pca
PCA
p18
g2
Ntp19
Rp20
(dp21
g13
I01
sS'n_components'
p22
I1
sS'whiten'
p23
I00
sbtp24
a(S'svm'
p25
g0
(csklearn.svm.classes
SVC
p26
g2
Ntp27
Rp28
(dp29
S'_impl'
p30
S'c_svc'
p31
sS'kernel'
p32
S'rbf'
p33
sS'C'
p34
I1
sS'verbose'
p35
I00
sS'probability'
p36
I00
sS'degree'
p37
I3
sS'epsilon'
p38
F0.0
sS'shrinking'
p39
I01
sS'max_iter'
p40
I-1
sS'random_state'
p41
NsS'tol'
p42
F0.001
sS'cache_size'
p43
I200
sS'coef0'
p44
F0.0
sS'nu'
p45
F0.0
sS'gamma'
p46
F1.0
sS'class_weight'
p47
Nsbtp48
asS'named_steps'
p49
(dp50
g17
g20
sg8
g11
sg25
g28
ssb.